; Function Attrs: nounwind uwtable
define internal fastcc zeroext range(i8 1, 0) i8 @http_request_version(ptr noundef %0) unnamed_addr #0 {
  %2 = tail call zeroext i8 @Curl_conn_http_version(ptr noundef %0) #11
  %.not = icmp eq i8 %2, 0
  br i1 %.not, label %3, label %http_may_use_1_1.exit.thread

3:                                                ; preds = %1
  %4 = getelementptr inbounds nuw i8, ptr %0, i64 5033
  %5 = load i8, ptr %4, align 1, !tbaa !181
  %6 = icmp eq i8 %5, 10
  br i1 %6, label %http_may_use_1_1.exit.thread, label %7

7:                                                ; preds = %3
  %8 = getelementptr inbounds nuw i8, ptr %0, i64 24
  %9 = load ptr, ptr %8, align 8, !tbaa !75
  %10 = getelementptr inbounds nuw i8, ptr %9, i64 1412
  %11 = load i8, ptr %10, align 4, !tbaa !182
  %12 = icmp eq i8 %11, 10
  br i1 %12, label %http_may_use_1_1.exit.thread, label %http_may_use_1_1.exit

http_may_use_1_1.exit:                            ; preds = %7
  %13 = getelementptr inbounds nuw i8, ptr %0, i64 5032
  %14 = load i8, ptr %13, align 8, !tbaa !3
  %.fr = freeze i8 %14
  %.not6 = icmp eq i8 %.fr, 1
  %spec.select = select i1 %.not6, i8 10, i8 11
  br label %http_may_use_1_1.exit.thread

http_may_use_1_1.exit.thread:                     ; preds = %http_may_use_1_1.exit, %7, %3, %1
  %.0 = phi i8 [ %2, %1 ], [ 10, %3 ], [ 10, %7 ], [ %spec.select, %http_may_use_1_1.exit ]
  ret i8 %.0
}